target datalayout = "e-m:e-p270:32:32-p271:32:32-p272:64:64-i64:64-i128:128-f80:128-n8:16:32:64-S128"
target triple = "x86_64-pc-linux-gnu"

%struct._lv_line_t = type { %struct._lv_obj_t, %union.anon, i32, i8 }
%struct._lv_obj_t = type { ptr, ptr, ptr, ptr, ptr, %struct.lv_area_t, i32, i16, i16 }
%struct.lv_area_t = type { i32, i32, i32, i32 }
%union.anon = type { ptr }

; Function Attrs: nounwind uwtable
define internal void @line_set_points(ptr noundef %0, ptr noundef %1, i32 noundef %2, i1 noundef zeroext %3) #0 {
  %5 = alloca ptr, align 8
  %6 = alloca ptr, align 8
  %7 = alloca i32, align 4
  %8 = alloca i8, align 1
  %9 = alloca ptr, align 8
  store ptr %0, ptr %5, align 8, !tbaa !3
  store ptr %1, ptr %6, align 8, !tbaa !3
  store i32 %2, ptr %7, align 4, !tbaa !14
  %10 = zext i1 %3 to i8
  store i8 %10, ptr %8, align 1, !tbaa !35
  br label %11

11:                                               ; preds = %4
  br label %12

12:                                               ; preds = %11
  call void @llvm.lifetime.start.p0(i64 8, ptr %9) #4
  %13 = load ptr, ptr %5, align 8, !tbaa !3
  store ptr %13, ptr %9, align 8, !tbaa !3
  %14 = load ptr, ptr %6, align 8, !tbaa !3
  %15 = load ptr, ptr %9, align 8, !tbaa !3
  %16 = getelementptr inbounds nuw %struct._lv_line_t, ptr %15, i32 0, i32 1
  store ptr %14, ptr %16, align 8, !tbaa !13
  %17 = load i32, ptr %7, align 4, !tbaa !14
  %18 = load ptr, ptr %9, align 8, !tbaa !3
  %19 = getelementptr inbounds nuw %struct._lv_line_t, ptr %18, i32 0, i32 2
  store i32 %17, ptr %19, align 8, !tbaa !7
  %20 = load i8, ptr %8, align 1, !tbaa !35, !range !37, !noundef !38
  %21 = trunc i8 %20 to i1
  %22 = zext i1 %21 to i32
  %23 = load ptr, ptr %9, align 8, !tbaa !3
  %24 = getelementptr inbounds nuw %struct._lv_line_t, ptr %23, i32 0, i32 3
  %25 = trunc i32 %22 to i8
  %26 = load i8, ptr %24, align 4
  %27 = and i8 %25, 1
  %28 = shl i8 %27, 1
  %29 = and i8 %26, -3
  %30 = or i8 %29, %28
  store i8 %30, ptr %24, align 4
  %31 = load ptr, ptr %5, align 8, !tbaa !3
  %32 = call zeroext i1 @lv_obj_refresh_self_size(ptr noundef %31)
  %33 = load ptr, ptr %5, align 8, !tbaa !3
  call void @lv_obj_invalidate(ptr noundef %33)
  call void @llvm.lifetime.end.p0(i64 8, ptr %9) #4
  ret void
}

; Function Attrs: nounwind uwtable
define void @lv_line_set_points_mutable(ptr noundef %0, ptr noundef %1, i32 noundef %2) #0 {
  %4 = alloca ptr, align 8
  %5 = alloca ptr, align 8
  %6 = alloca i32, align 4
  store ptr %0, ptr %4, align 8, !tbaa !3
  store ptr %1, ptr %5, align 8, !tbaa !3
  store i32 %2, ptr %6, align 4, !tbaa !14
  %7 = load ptr, ptr %4, align 8, !tbaa !3
  %8 = load ptr, ptr %5, align 8, !tbaa !3
  %9 = load i32, ptr %6, align 4, !tbaa !14
  call void @line_set_points(ptr noundef %7, ptr noundef %8, i32 noundef %9, i1 noundef zeroext true)
  ret void
}